target datalayout = "e-m:e-p270:32:32-p271:32:32-p272:64:64-i64:64-i128:128-f80:128-n8:16:32:64-S128"
target triple = "x86_64-pc-linux-gnu"

%struct.expert_field = type { i32, i32 }

@hf_ged125_length = internal global i32 0, align 4
@hf_ged125_floating = internal global i32 0, align 4
@hf_ged125_floating_payload_strg = internal global i32 0, align 4
@hf_ged125_floating_payload_uint = internal global i32 0, align 4
@hf_ged125_floating_payload_bool = internal global i32 0, align 4
@hf_ged125_floating_payload_ECC_tag = internal global i32 0, align 4
@hf_ged125_floating_cause_code = internal global i32 0, align 4
@hf_ged125_floating_payload_unspec = internal global i32 0, align 4
@hf_ged125_floating_media_protocol = internal global i32 0, align 4
@hf_ged125_floating_library_designator = internal global i32 0, align 4
@hf_ged125_Data_Playback_Type = internal global i32 0, align 4
@hf_ged125_Data_Playback_Formats = internal global i32 0, align 4
@hf_ged125_floating_uchar_array_index = internal global i32 0, align 4
@ett_ged125_floating = internal global i32 0, align 4
@ett_ged125_float_field = internal global i32 0, align 4
@ei_ged125_length_bad = internal global %struct.expert_field zeroinitializer, align 4
@.str.480 = private unnamed_addr constant [11 x i8] c"Unknown %d\00", align 1
@.str.483 = private unnamed_addr constant [14 x i8] c"Float Message\00", align 1
@.str.484 = private unnamed_addr constant [3 x i8] c"%s\00", align 1

; Function Attrs: null_pointer_is_valid sspstrong uwtable
define internal void @Media_Specifier_dissect(ptr noundef %0, ptr noundef %1, ptr noundef %2, i32 noundef %3) #0 {
  %5 = alloca ptr, align 8
  %6 = alloca ptr, align 8
  %7 = alloca ptr, align 8
  %8 = alloca i32, align 4
  %9 = alloca i8, align 1
  store ptr %0, ptr %5, align 8
  store ptr %1, ptr %6, align 8
  store ptr %2, ptr %7, align 8
  store i32 %3, ptr %8, align 4
  call void @llvm.lifetime.start.p0(i64 1, ptr %9) #3
  %10 = load ptr, ptr %5, align 8
  %11 = load ptr, ptr %7, align 8
  %12 = load i32, ptr %11, align 4
  %13 = call zeroext i8 @tvb_get_uint8(ptr noundef %10, i32 noundef %12)
  store i8 %13, ptr %9, align 1
  %14 = load ptr, ptr %6, align 8
  %15 = load i32, ptr @hf_ged125_floating_media_protocol, align 4
  %16 = load ptr, ptr %5, align 8
  %17 = load ptr, ptr %7, align 8
  %18 = load i32, ptr %17, align 4
  %19 = call ptr @proto_tree_add_item(ptr noundef %14, i32 noundef %15, ptr noundef %16, i32 noundef %18, i32 noundef 1, i32 noundef 0)
  %20 = load ptr, ptr %7, align 8
  %21 = load i32, ptr %20, align 4
  %22 = add i32 %21, 1
  store i32 %22, ptr %20, align 4
  %23 = load i8, ptr %9, align 1
  %24 = zext i8 %23 to i32
  switch i32 %24, label %79 [
    i32 72, label %25
    i32 83, label %25
    i32 79, label %25
    i32 70, label %25
    i32 84, label %43
    i32 68, label %52
  ]

25:                                               ; preds = %4, %4, %4, %4
  %26 = load ptr, ptr %6, align 8
  %27 = load i32, ptr @hf_ged125_floating_library_designator, align 4
  %28 = load ptr, ptr %5, align 8
  %29 = load ptr, ptr %7, align 8
  %30 = load i32, ptr %29, align 4
  %31 = call ptr @proto_tree_add_item(ptr noundef %26, i32 noundef %27, ptr noundef %28, i32 noundef %30, i32 noundef 1, i32 noundef 0)
  %32 = load ptr, ptr %7, align 8
  %33 = load i32, ptr %32, align 4
  %34 = add i32 %33, 1
  store i32 %34, ptr %32, align 4
  %35 = load ptr, ptr %6, align 8
  %36 = load i32, ptr @hf_ged125_floating_payload_strg, align 4
  %37 = load ptr, ptr %5, align 8
  %38 = load ptr, ptr %7, align 8
  %39 = load i32, ptr %38, align 4
  %40 = load i32, ptr %8, align 4
  %41 = sub i32 %40, 2
  %42 = call ptr @proto_tree_add_item(ptr noundef %35, i32 noundef %36, ptr noundef %37, i32 noundef %39, i32 noundef %41, i32 noundef 0)
  br label %79

43:                                               ; preds = %4
  %44 = load ptr, ptr %6, align 8
  %45 = load i32, ptr @hf_ged125_floating_payload_strg, align 4
  %46 = load ptr, ptr %5, align 8
  %47 = load ptr, ptr %7, align 8
  %48 = load i32, ptr %47, align 4
  %49 = load i32, ptr %8, align 4
  %50 = sub i32 %49, 1
  %51 = call ptr @proto_tree_add_item(ptr noundef %44, i32 noundef %45, ptr noundef %46, i32 noundef %48, i32 noundef %50, i32 noundef 0)
  br label %79

52:                                               ; preds = %4
  %53 = load ptr, ptr %6, align 8
  %54 = load i32, ptr @hf_ged125_Data_Playback_Type, align 4
  %55 = load ptr, ptr %5, align 8
  %56 = load ptr, ptr %7, align 8
  %57 = load i32, ptr %56, align 4
  %58 = call ptr @proto_tree_add_item(ptr noundef %53, i32 noundef %54, ptr noundef %55, i32 noundef %57, i32 noundef 4, i32 noundef 0)
  %59 = load ptr, ptr %7, align 8
  %60 = load i32, ptr %59, align 4
  %61 = add i32 %60, 4
  store i32 %61, ptr %59, align 4
  %62 = load ptr, ptr %6, align 8
  %63 = load i32, ptr @hf_ged125_Data_Playback_Formats, align 4
  %64 = load ptr, ptr %5, align 8
  %65 = load ptr, ptr %7, align 8
  %66 = load i32, ptr %65, align 4
  %67 = call ptr @proto_tree_add_item(ptr noundef %62, i32 noundef %63, ptr noundef %64, i32 noundef %66, i32 noundef 4, i32 noundef 0)
  %68 = load ptr, ptr %7, align 8
  %69 = load i32, ptr %68, align 4
  %70 = add i32 %69, 4
  store i32 %70, ptr %68, align 4
  %71 = load ptr, ptr %6, align 8
  %72 = load i32, ptr @hf_ged125_floating_payload_strg, align 4
  %73 = load ptr, ptr %5, align 8
  %74 = load ptr, ptr %7, align 8
  %75 = load i32, ptr %74, align 4
  %76 = load i32, ptr %8, align 4
  %77 = sub i32 %76, 9
  %78 = call ptr @proto_tree_add_item(ptr noundef %71, i32 noundef %72, ptr noundef %73, i32 noundef %75, i32 noundef %77, i32 noundef 0)
  br label %79

79:                                               ; preds = %4, %52, %43, %25
  %80 = load i32, ptr %8, align 4
  %81 = load ptr, ptr %7, align 8
  %82 = load i32, ptr %81, align 4
  %83 = add i32 %82, %80
  store i32 %83, ptr %81, align 4
  call void @llvm.lifetime.end.p0(i64 1, ptr %9) #3
  ret void
}

; Function Attrs: null_pointer_is_valid sspstrong uwtable
define internal void @floating_fields(ptr noundef %0, ptr noundef %1, ptr noundef %2, i32 noundef %3, i32 noundef %4) #0 {
  %6 = alloca ptr, align 8
  %7 = alloca ptr, align 8
  %8 = alloca ptr, align 8
  %9 = alloca i32, align 4
  %10 = alloca i32, align 4
  %11 = alloca i32, align 4
  %12 = alloca i32, align 4
  %13 = alloca ptr, align 8
  %14 = alloca ptr, align 8
  %15 = alloca ptr, align 8
  store ptr %0, ptr %6, align 8
  store ptr %1, ptr %7, align 8
  store ptr %2, ptr %8, align 8
  store i32 %3, ptr %9, align 4
  store i32 %4, ptr %10, align 4
  call void @llvm.lifetime.start.p0(i64 4, ptr %11) #3
  store i32 4, ptr %11, align 4
  call void @llvm.lifetime.start.p0(i64 4, ptr %12) #3
  call void @llvm.lifetime.start.p0(i64 8, ptr %13) #3
  call void @llvm.lifetime.start.p0(i64 8, ptr %14) #3
  call void @llvm.lifetime.start.p0(i64 8, ptr %15) #3
  %16 = load i32, ptr %10, align 4
  %17 = load i32, ptr %9, align 4
  %18 = sub i32 %16, %17
  %19 = icmp sgt i32 %18, 0
  br i1 %19, label %20, label %24

20:                                               ; preds = %5
  %21 = load i32, ptr %10, align 4
  %22 = load i32, ptr %9, align 4
  %23 = sub i32 %21, %22
  store i32 %23, ptr %11, align 4
  br label %24

24:                                               ; preds = %20, %5
  %25 = load ptr, ptr %8, align 8
  %26 = load ptr, ptr %6, align 8
  %27 = load i32, ptr %9, align 4
  %28 = load i32, ptr %11, align 4
  %29 = load i32, ptr @ett_ged125_floating, align 4
  %30 = call ptr @proto_tree_add_subtree(ptr noundef %25, ptr noundef %26, i32 noundef %27, i32 noundef %28, i32 noundef %29, ptr noundef null, ptr noundef @.str.483)
  store ptr %30, ptr %13, align 8
  br label %31

31:                                               ; preds = %186, %24
  %32 = load i32, ptr %9, align 4
  %33 = load i32, ptr %10, align 4
  %34 = sub i32 %33, 2
  %35 = icmp slt i32 %32, %34
  br i1 %35, label %36, label %187

36:                                               ; preds = %31
  %37 = load ptr, ptr %6, align 8
  %38 = load i32, ptr %9, align 4
  %39 = call zeroext i8 @tvb_get_uint8(ptr noundef %37, i32 noundef %38)
  %40 = zext i8 %39 to i32
  store i32 %40, ptr %12, align 4
  %41 = load ptr, ptr %13, align 8
  %42 = load i32, ptr @hf_ged125_floating, align 4
  %43 = load ptr, ptr %6, align 8
  %44 = load i32, ptr %9, align 4
  %45 = load i32, ptr %12, align 4
  %46 = load i32, ptr %12, align 4
  %47 = call ptr @val_to_str(i32 noundef %46, ptr noundef @vals_floating_point_types, ptr noundef @.str.480)
  %48 = call ptr (ptr, i32, ptr, i32, i32, i32, ptr, ...) @proto_tree_add_uint_format(ptr noundef %41, i32 noundef %42, ptr noundef %43, i32 noundef %44, i32 noundef 1, i32 noundef %45, ptr noundef @.str.484, ptr noundef %47)
  store ptr %48, ptr %15, align 8
  %49 = load ptr, ptr %15, align 8
  %50 = load i32, ptr @ett_ged125_float_field, align 4
  %51 = call ptr @proto_item_add_subtree(ptr noundef %49, i32 noundef %50)
  store ptr %51, ptr %14, align 8
  %52 = load i32, ptr %9, align 4
  %53 = add i32 %52, 1
  store i32 %53, ptr %9, align 4
  %54 = load ptr, ptr %6, align 8
  %55 = load i32, ptr %9, align 4
  %56 = call zeroext i8 @tvb_get_uint8(ptr noundef %54, i32 noundef %55)
  %57 = zext i8 %56 to i32
  store i32 %57, ptr %11, align 4
  %58 = load ptr, ptr %14, align 8
  %59 = load i32, ptr @hf_ged125_length, align 4
  %60 = load ptr, ptr %6, align 8
  %61 = load i32, ptr %9, align 4
  %62 = load i32, ptr %11, align 4
  %63 = call ptr @proto_tree_add_uint(ptr noundef %58, i32 noundef %59, ptr noundef %60, i32 noundef %61, i32 noundef 1, i32 noundef %62)
  %64 = load i32, ptr %9, align 4
  %65 = add i32 %64, 1
  store i32 %65, ptr %9, align 4
  %66 = load i32, ptr %9, align 4
  %67 = load i32, ptr %11, align 4
  %68 = add i32 %66, %67
  %69 = load i32, ptr %10, align 4
  %70 = icmp sgt i32 %68, %69
  br i1 %70, label %71, label %78

71:                                               ; preds = %36
  %72 = load i32, ptr %11, align 4
  %73 = icmp sgt i32 %72, 0
  br i1 %73, label %74, label %78

74:                                               ; preds = %71
  %75 = load ptr, ptr %7, align 8
  %76 = load ptr, ptr %15, align 8
  %77 = call ptr @expert_add_info(ptr noundef %75, ptr noundef %76, ptr noundef @ei_ged125_length_bad)
  br label %187

78:                                               ; preds = %71, %36
  %79 = load i32, ptr %12, align 4
  switch i32 %79, label %186 [
    i32 42, label %80
    i32 43, label %80
    i32 44, label %104
    i32 47, label %135
    i32 48, label %135
    i32 49, label %135
    i32 50, label %135
    i32 19, label %139
    i32 1, label %149
    i32 18, label %149
    i32 20, label %149
    i32 21, label %149
    i32 22, label %149
    i32 23, label %149
    i32 24, label %149
    i32 25, label %149
    i32 26, label %149
    i32 27, label %149
    i32 28, label %149
    i32 29, label %149
    i32 30, label %149
    i32 31, label %149
    i32 32, label %149
    i32 33, label %149
    i32 34, label %149
    i32 37, label %149
    i32 38, label %149
    i32 39, label %149
    i32 40, label %149
    i32 51, label %149
    i32 52, label %149
    i32 53, label %149
    i32 54, label %149
    i32 55, label %149
    i32 56, label %149
    i32 57, label %149
    i32 58, label %149
    i32 35, label %159
    i32 36, label %159
    i32 41, label %168
    i32 45, label %177
    i32 46, label %177
  ]

80:                                               ; preds = %78, %78
  %81 = load ptr, ptr %14, align 8
  %82 = load i32, ptr @hf_ged125_floating_payload_ECC_tag, align 4
  %83 = load ptr, ptr %6, align 8
  %84 = load i32, ptr %9, align 4
  %85 = call ptr @proto_tree_add_item(ptr noundef %81, i32 noundef %82, ptr noundef %83, i32 noundef %84, i32 noundef 4, i32 noundef 0)
  %86 = load i32, ptr %9, align 4
  %87 = add i32 %86, 4
  store i32 %87, ptr %9, align 4
  %88 = load i32, ptr %11, align 4
  %89 = sub i32 %88, 4
  %90 = icmp sgt i32 %89, 0
  br i1 %90, label %91, label %103

91:                                               ; preds = %80
  %92 = load ptr, ptr %14, align 8
  %93 = load i32, ptr @hf_ged125_floating_payload_strg, align 4
  %94 = load ptr, ptr %6, align 8
  %95 = load i32, ptr %9, align 4
  %96 = load i32, ptr %11, align 4
  %97 = sub i32 %96, 4
  %98 = call ptr @proto_tree_add_item(ptr noundef %92, i32 noundef %93, ptr noundef %94, i32 noundef %95, i32 noundef %97, i32 noundef 0)
  %99 = load i32, ptr %11, align 4
  %100 = sub i32 %99, 4
  %101 = load i32, ptr %9, align 4
  %102 = add i32 %101, %100
  store i32 %102, ptr %9, align 4
  br label %103

103:                                              ; preds = %91, %80
  br label %186

104:                                              ; preds = %78
  %105 = load ptr, ptr %14, align 8
  %106 = load i32, ptr @hf_ged125_floating_payload_ECC_tag, align 4
  %107 = load ptr, ptr %6, align 8
  %108 = load i32, ptr %9, align 4
  %109 = call ptr @proto_tree_add_item(ptr noundef %105, i32 noundef %106, ptr noundef %107, i32 noundef %108, i32 noundef 4, i32 noundef 0)
  %110 = load i32, ptr %9, align 4
  %111 = add i32 %110, 4
  store i32 %111, ptr %9, align 4
  %112 = load ptr, ptr %14, align 8
  %113 = load i32, ptr @hf_ged125_floating_uchar_array_index, align 4
  %114 = load ptr, ptr %6, align 8
  %115 = load i32, ptr %9, align 4
  %116 = call ptr @proto_tree_add_item(ptr noundef %112, i32 noundef %113, ptr noundef %114, i32 noundef %115, i32 noundef 1, i32 noundef 0)
  %117 = load i32, ptr %9, align 4
  %118 = add i32 %117, 1
  store i32 %118, ptr %9, align 4
  %119 = load i32, ptr %11, align 4
  %120 = sub i32 %119, 5
  %121 = icmp sgt i32 %120, 0
  br i1 %121, label %122, label %134

122:                                              ; preds = %104
  %123 = load ptr, ptr %14, align 8
  %124 = load i32, ptr @hf_ged125_floating_payload_strg, align 4
  %125 = load ptr, ptr %6, align 8
  %126 = load i32, ptr %9, align 4
  %127 = load i32, ptr %11, align 4
  %128 = sub i32 %127, 4
  %129 = call ptr @proto_tree_add_item(ptr noundef %123, i32 noundef %124, ptr noundef %125, i32 noundef %126, i32 noundef %128, i32 noundef 0)
  %130 = load i32, ptr %11, align 4
  %131 = sub i32 %130, 5
  %132 = load i32, ptr %9, align 4
  %133 = add i32 %132, %131
  store i32 %133, ptr %9, align 4
  br label %134

134:                                              ; preds = %122, %104
  br label %186

135:                                              ; preds = %78, %78, %78, %78
  %136 = load ptr, ptr %6, align 8
  %137 = load ptr, ptr %14, align 8
  %138 = load i32, ptr %11, align 4
  call void @Media_Specifier_dissect(ptr noundef %136, ptr noundef %137, ptr noundef %9, i32 noundef %138)
  br label %186

139:                                              ; preds = %78
  %140 = load ptr, ptr %14, align 8
  %141 = load i32, ptr @hf_ged125_floating_payload_unspec, align 4
  %142 = load ptr, ptr %6, align 8
  %143 = load i32, ptr %9, align 4
  %144 = load i32, ptr %11, align 4
  %145 = call ptr @proto_tree_add_item(ptr noundef %140, i32 noundef %141, ptr noundef %142, i32 noundef %143, i32 noundef %144, i32 noundef 0)
  %146 = load i32, ptr %11, align 4
  %147 = load i32, ptr %9, align 4
  %148 = add i32 %147, %146
  store i32 %148, ptr %9, align 4
  br label %186

149:                                              ; preds = %78, %78, %78, %78, %78, %78, %78, %78, %78, %78, %78, %78, %78, %78, %78, %78, %78, %78, %78, %78, %78, %78, %78, %78, %78, %78, %78, %78, %78
  %150 = load ptr, ptr %14, align 8
  %151 = load i32, ptr @hf_ged125_floating_payload_strg, align 4
  %152 = load ptr, ptr %6, align 8
  %153 = load i32, ptr %9, align 4
  %154 = load i32, ptr %11, align 4
  %155 = call ptr @proto_tree_add_item(ptr noundef %150, i32 noundef %151, ptr noundef %152, i32 noundef %153, i32 noundef %154, i32 noundef 0)
  %156 = load i32, ptr %11, align 4
  %157 = load i32, ptr %9, align 4
  %158 = add i32 %157, %156
  store i32 %158, ptr %9, align 4
  br label %186

159:                                              ; preds = %78, %78
  %160 = load ptr, ptr %14, align 8
  %161 = load i32, ptr @hf_ged125_floating_payload_uint, align 4
  %162 = load ptr, ptr %6, align 8
  %163 = load i32, ptr %9, align 4
  %164 = call ptr @proto_tree_add_item(ptr noundef %160, i32 noundef %161, ptr noundef %162, i32 noundef %163, i32 noundef 4, i32 noundef 0)
  %165 = load i32, ptr %11, align 4
  %166 = load i32, ptr %9, align 4
  %167 = add i32 %166, %165
  store i32 %167, ptr %9, align 4
  br label %186

168:                                              ; preds = %78
  %169 = load ptr, ptr %14, align 8
  %170 = load i32, ptr @hf_ged125_floating_cause_code, align 4
  %171 = load ptr, ptr %6, align 8
  %172 = load i32, ptr %9, align 4
  %173 = call ptr @proto_tree_add_item(ptr noundef %169, i32 noundef %170, ptr noundef %171, i32 noundef %172, i32 noundef 4, i32 noundef 0)
  %174 = load i32, ptr %11, align 4
  %175 = load i32, ptr %9, align 4
  %176 = add i32 %175, %174
  store i32 %176, ptr %9, align 4
  br label %186

177:                                              ; preds = %78, %78
  %178 = load ptr, ptr %14, align 8
  %179 = load i32, ptr @hf_ged125_floating_payload_bool, align 4
  %180 = load ptr, ptr %6, align 8
  %181 = load i32, ptr %9, align 4
  %182 = call ptr @proto_tree_add_item(ptr noundef %178, i32 noundef %179, ptr noundef %180, i32 noundef %181, i32 noundef 4, i32 noundef 0)
  %183 = load i32, ptr %11, align 4
  %184 = load i32, ptr %9, align 4
  %185 = add i32 %184, %183
  store i32 %185, ptr %9, align 4
  br label %186

186:                                              ; preds = %78, %177, %168, %159, %149, %139, %135, %134, %103
  br label %31, !llvm.loop !8

187:                                              ; preds = %74, %31
  call void @llvm.lifetime.end.p0(i64 8, ptr %15) #3
  call void @llvm.lifetime.end.p0(i64 8, ptr %14) #3
  call void @llvm.lifetime.end.p0(i64 8, ptr %13) #3
  call void @llvm.lifetime.end.p0(i64 4, ptr %12) #3
  call void @llvm.lifetime.end.p0(i64 4, ptr %11) #3
  ret void
}