; Function Attrs: null_pointer_is_valid sspstrong uwtable
define internal fastcc void @floating_fields(ptr noundef %0, ptr noundef %1, ptr noundef %2, i32 noundef %3, i32 noundef %4) unnamed_addr #0 {
  %6 = sub i32 %4, %3
  %7 = icmp sgt i32 %6, 0
  %spec.select = select i1 %7, i32 %6, i32 4
  %8 = load i32, ptr @ett_ged125_floating, align 4
  %9 = tail call ptr @proto_tree_add_subtree(ptr noundef %2, ptr noundef %0, i32 noundef %3, i32 noundef %spec.select, i32 noundef %8, ptr noundef null, ptr noundef nonnull @.str.483)
  %10 = add i32 %4, -2
  %11 = icmp slt i32 %3, %10
  br i1 %11, label %.lr.ph, label %.loopexit

.lr.ph:                                           ; preds = %5, %87
  %.087 = phi i32 [ %.1, %87 ], [ %3, %5 ]
  %12 = tail call zeroext i8 @tvb_get_uint8(ptr noundef %0, i32 noundef %.087)
  %13 = zext i8 %12 to i32
  %14 = load i32, ptr @hf_ged125_floating, align 4
  %15 = tail call ptr @val_to_str(i32 noundef %13, ptr noundef nonnull @vals_floating_point_types, ptr noundef nonnull @.str.480)
  %16 = tail call ptr (ptr, i32, ptr, i32, i32, i32, ptr, ...) @proto_tree_add_uint_format(ptr noundef %9, i32 noundef %14, ptr noundef %0, i32 noundef %.087, i32 noundef 1, i32 noundef %13, ptr noundef nonnull @.str.484, ptr noundef %15)
  %17 = load i32, ptr @ett_ged125_float_field, align 4
  %18 = tail call ptr @proto_item_add_subtree(ptr noundef %16, i32 noundef %17)
  %19 = add nsw i32 %.087, 1
  %20 = tail call zeroext i8 @tvb_get_uint8(ptr noundef %0, i32 noundef %19)
  %21 = zext i8 %20 to i32
  %22 = load i32, ptr @hf_ged125_length, align 4
  %23 = tail call ptr @proto_tree_add_uint(ptr noundef %18, i32 noundef %22, ptr noundef %0, i32 noundef %19, i32 noundef 1, i32 noundef %21)
  %24 = add i32 %.087, 2
  %25 = add i32 %24, %21
  %26 = icmp sgt i32 %25, %4
  %27 = icmp ne i8 %20, 0
  %or.cond = and i1 %27, %26
  br i1 %or.cond, label %28, label %30

28:                                               ; preds = %.lr.ph
  %29 = tail call ptr @expert_add_info(ptr noundef %1, ptr noundef %16, ptr noundef nonnull @ei_ged125_length_bad)
  br label %.loopexit

30:                                               ; preds = %.lr.ph
  switch i8 %12, label %87 [
    i8 42, label %31
    i8 43, label %31
    i8 44, label %41
    i8 47, label %53
    i8 48, label %53
    i8 49, label %53
    i8 50, label %53
    i8 19, label %72
    i8 1, label %75
    i8 18, label %75
    i8 20, label %75
    i8 21, label %75
    i8 22, label %75
    i8 23, label %75
    i8 24, label %75
    i8 25, label %75
    i8 26, label %75
    i8 27, label %75
    i8 28, label %75
    i8 29, label %75
    i8 30, label %75
    i8 31, label %75
    i8 32, label %75
    i8 33, label %75
    i8 34, label %75
    i8 37, label %75
    i8 38, label %75
    i8 39, label %75
    i8 40, label %75
    i8 51, label %75
    i8 52, label %75
    i8 53, label %75
    i8 54, label %75
    i8 55, label %75
    i8 56, label %75
    i8 57, label %75
    i8 58, label %75
    i8 35, label %78
    i8 36, label %78
    i8 41, label %81
    i8 45, label %84
    i8 46, label %84
  ]

31:                                               ; preds = %30, %30
  %32 = load i32, ptr @hf_ged125_floating_payload_ECC_tag, align 4
  %33 = tail call ptr @proto_tree_add_item(ptr noundef %18, i32 noundef %32, ptr noundef %0, i32 noundef %24, i32 noundef 4, i32 noundef 0)
  %34 = add i32 %.087, 6
  %35 = icmp ugt i8 %20, 4
  br i1 %35, label %36, label %87

36:                                               ; preds = %31
  %37 = add nsw i32 %21, -4
  %38 = load i32, ptr @hf_ged125_floating_payload_strg, align 4
  %39 = tail call ptr @proto_tree_add_item(ptr noundef %18, i32 noundef %38, ptr noundef %0, i32 noundef %34, i32 noundef %37, i32 noundef 0)
  %40 = add i32 %37, %34
  br label %87

41:                                               ; preds = %30
  %42 = load i32, ptr @hf_ged125_floating_payload_ECC_tag, align 4
  %43 = tail call ptr @proto_tree_add_item(ptr noundef %18, i32 noundef %42, ptr noundef %0, i32 noundef %24, i32 noundef 4, i32 noundef 0)
  %44 = add i32 %.087, 6
  %45 = load i32, ptr @hf_ged125_floating_uchar_array_index, align 4
  %46 = tail call ptr @proto_tree_add_item(ptr noundef %18, i32 noundef %45, ptr noundef %0, i32 noundef %44, i32 noundef 1, i32 noundef 0)
  %47 = add i32 %.087, 7
  %48 = icmp ugt i8 %20, 5
  br i1 %48, label %49, label %87

49:                                               ; preds = %41
  %50 = load i32, ptr @hf_ged125_floating_payload_strg, align 4
  %51 = add nsw i32 %21, -4
  %52 = tail call ptr @proto_tree_add_item(ptr noundef %18, i32 noundef %50, ptr noundef %0, i32 noundef %47, i32 noundef %51, i32 noundef 0)
  br label %87

53:                                               ; preds = %30, %30, %30, %30
  %54 = tail call zeroext i8 @tvb_get_uint8(ptr noundef %0, i32 noundef %24)
  %55 = load i32, ptr @hf_ged125_floating_media_protocol, align 4
  %56 = tail call ptr @proto_tree_add_item(ptr noundef %18, i32 noundef %55, ptr noundef %0, i32 noundef %24, i32 noundef 1, i32 noundef 0)
  %57 = add i32 %.087, 3
  switch i8 %54, label %Media_Specifier_dissect.exit [
    i8 72, label %58
    i8 83, label %58
    i8 79, label %58
    i8 70, label %58
    i8 84, label %.sink.split.i
    i8 68, label %61
  ]

58:                                               ; preds = %53, %53, %53, %53
  %59 = load i32, ptr @hf_ged125_floating_library_designator, align 4
  %60 = tail call ptr @proto_tree_add_item(ptr noundef %18, i32 noundef %59, ptr noundef %0, i32 noundef %57, i32 noundef 1, i32 noundef 0)
  br label %.sink.split.sink.split.i

61:                                               ; preds = %53
  %62 = load i32, ptr @hf_ged125_Data_Playback_Type, align 4
  %63 = tail call ptr @proto_tree_add_item(ptr noundef %18, i32 noundef %62, ptr noundef %0, i32 noundef %57, i32 noundef 4, i32 noundef 0)
  %64 = add i32 %.087, 7
  %65 = load i32, ptr @hf_ged125_Data_Playback_Formats, align 4
  %66 = tail call ptr @proto_tree_add_item(ptr noundef %18, i32 noundef %65, ptr noundef %0, i32 noundef %64, i32 noundef 4, i32 noundef 0)
  br label %.sink.split.sink.split.i

.sink.split.sink.split.i:                         ; preds = %61, %58
  %.2 = phi i32 [ %64, %61 ], [ %57, %58 ]
  %.sink36.i = phi i32 [ 4, %61 ], [ 1, %58 ]
  %.sink34.ph.i = phi i32 [ -9, %61 ], [ -2, %58 ]
  %67 = add i32 %.sink36.i, %.2
  br label %.sink.split.i

.sink.split.i:                                    ; preds = %.sink.split.sink.split.i, %53
  %.3 = phi i32 [ %67, %.sink.split.sink.split.i ], [ %57, %53 ]
  %.sink34.i = phi i32 [ %.sink34.ph.i, %.sink.split.sink.split.i ], [ -1, %53 ]
  %68 = load i32, ptr @hf_ged125_floating_payload_strg, align 4
  %69 = add nsw i32 %.sink34.i, %21
  %70 = tail call ptr @proto_tree_add_item(ptr noundef %18, i32 noundef %68, ptr noundef %0, i32 noundef %.3, i32 noundef %69, i32 noundef 0)
  br label %Media_Specifier_dissect.exit

Media_Specifier_dissect.exit:                     ; preds = %53, %.sink.split.i
  %.4 = phi i32 [ %57, %53 ], [ %.3, %.sink.split.i ]
  %71 = add i32 %.4, %21
  br label %87

72:                                               ; preds = %30
  %73 = load i32, ptr @hf_ged125_floating_payload_unspec, align 4
  %74 = tail call ptr @proto_tree_add_item(ptr noundef %18, i32 noundef %73, ptr noundef %0, i32 noundef %24, i32 noundef %21, i32 noundef 0)
  br label %87

75:                                               ; preds = %30, %30, %30, %30, %30, %30, %30, %30, %30, %30, %30, %30, %30, %30, %30, %30, %30, %30, %30, %30, %30, %30, %30, %30, %30, %30, %30, %30, %30
  %76 = load i32, ptr @hf_ged125_floating_payload_strg, align 4
  %77 = tail call ptr @proto_tree_add_item(ptr noundef %18, i32 noundef %76, ptr noundef %0, i32 noundef %24, i32 noundef %21, i32 noundef 0)
  br label %87

78:                                               ; preds = %30, %30
  %79 = load i32, ptr @hf_ged125_floating_payload_uint, align 4
  %80 = tail call ptr @proto_tree_add_item(ptr noundef %18, i32 noundef %79, ptr noundef %0, i32 noundef %24, i32 noundef 4, i32 noundef 0)
  br label %87

81:                                               ; preds = %30
  %82 = load i32, ptr @hf_ged125_floating_cause_code, align 4
  %83 = tail call ptr @proto_tree_add_item(ptr noundef %18, i32 noundef %82, ptr noundef %0, i32 noundef %24, i32 noundef 4, i32 noundef 0)
  br label %87

84:                                               ; preds = %30, %30
  %85 = load i32, ptr @hf_ged125_floating_payload_bool, align 4
  %86 = tail call ptr @proto_tree_add_item(ptr noundef %18, i32 noundef %85, ptr noundef %0, i32 noundef %24, i32 noundef 4, i32 noundef 0)
  br label %87

87:                                               ; preds = %41, %49, %31, %36, %84, %81, %78, %75, %72, %Media_Specifier_dissect.exit, %30
  %.1 = phi i32 [ %24, %30 ], [ %25, %84 ], [ %25, %81 ], [ %25, %78 ], [ %25, %75 ], [ %25, %72 ], [ %71, %Media_Specifier_dissect.exit ], [ %25, %49 ], [ %47, %41 ], [ %40, %36 ], [ %34, %31 ]
  %88 = icmp slt i32 %.1, %10
  br i1 %88, label %.lr.ph, label %.loopexit, !llvm.loop !12

.loopexit:                                        ; preds = %87, %5, %28
  ret void
}